target datalayout = "e-m:e-p270:32:32-p271:32:32-p272:64:64-i64:64-i128:128-f80:128-n8:16:32:64-S128"
target triple = "x86_64-unknown-linux-gnu"

%"class.icu_75::UObject" = type { ptr }
%"struct.icu_75::UInitOnce" = type { %"struct.std::atomic", i32 }
%"struct.std::atomic" = type { %"struct.std::__atomic_base" }
%"struct.std::__atomic_base" = type { i32 }
%"class.icu_75::Normalizer2WithImpl" = type { %"class.icu_75::Normalizer2", ptr }
%"class.icu_75::Normalizer2" = type { %"class.icu_75::UObject" }
%"struct.icu_75::Norm2AllModes" = type { ptr, %"class.icu_75::ComposeNormalizer2", %"class.icu_75::DecomposeNormalizer2", %"class.icu_75::FCDNormalizer2", %"class.icu_75::ComposeNormalizer2" }
%"class.icu_75::DecomposeNormalizer2" = type { %"class.icu_75::Normalizer2WithImpl" }
%"class.icu_75::FCDNormalizer2" = type { %"class.icu_75::Normalizer2WithImpl" }
%"class.icu_75::ComposeNormalizer2" = type <{ %"class.icu_75::Normalizer2WithImpl", i8, [7 x i8] }>

@_ZN6icu_75L12nfcSingletonE = internal global ptr null, align 8
@_ZN6icu_75L11nfcInitOnceE = internal global { { i32 }, i32 } zeroinitializer, align 4

; Function Attrs: noreturn nounwind uwtable
define linkonce_odr hidden void @__clang_call_terminate(ptr noundef %0) #7 comdat {
  %2 = call ptr @__cxa_begin_catch(ptr %0) #8
  call void @_ZSt9terminatev() #9
  unreachable
}

; Function Attrs: mustprogress nounwind uwtable
define linkonce_odr noundef i32 @_ZStanSt12memory_orderSt23__memory_order_modifier(i32 noundef %__m, i32 noundef %__mod) #0 comdat {
entry:
  %__m.addr = alloca i32, align 4
  %__mod.addr = alloca i32, align 4
  store i32 %__m, ptr %__m.addr, align 4
  store i32 %__mod, ptr %__mod.addr, align 4
  %0 = load i32, ptr %__m.addr, align 4
  %1 = load i32, ptr %__mod.addr, align 4
  %and = and i32 %0, %1
  ret i32 %and
}

; Function Attrs: mustprogress nounwind uwtable
define linkonce_odr noundef i32 @_ZN6icu_7516umtx_loadAcquireERSt6atomicIiE(ptr noundef nonnull align 4 dereferenceable(4) %var) #0 comdat personality ptr @__gxx_personality_v0 {
entry:
  %this.addr.i = alloca ptr, align 8
  %__m.addr.i = alloca i32, align 4
  %__b.i = alloca i32, align 4
  %atomic-temp.i = alloca i32, align 4
  %var.addr = alloca ptr, align 8
  store ptr %var, ptr %var.addr, align 8
  %0 = load ptr, ptr %var.addr, align 8
  store ptr %0, ptr %this.addr.i, align 8
  store i32 2, ptr %__m.addr.i, align 4
  %this1.i = load ptr, ptr %this.addr.i, align 8
  %1 = load i32, ptr %__m.addr.i, align 4
  %call.i = invoke noundef i32 @_ZStanSt12memory_orderSt23__memory_order_modifier(i32 noundef %1, i32 noundef 65535)
          to label %invoke.cont.i unwind label %terminate.lpad.i

invoke.cont.i:                                    ; preds = %entry
  store i32 %call.i, ptr %__b.i, align 4
  %2 = load i32, ptr %__m.addr.i, align 4
  switch i32 %2, label %monotonic.i [
    i32 1, label %acquire.i
    i32 2, label %acquire.i
    i32 5, label %seqcst.i
  ]

monotonic.i:                                      ; preds = %invoke.cont.i
  %3 = load atomic i32, ptr %this1.i monotonic, align 4
  store i32 %3, ptr %atomic-temp.i, align 4
  br label %_ZNKSt13__atomic_baseIiE4loadESt12memory_order.exit

acquire.i:                                        ; preds = %invoke.cont.i, %invoke.cont.i
  %4 = load atomic i32, ptr %this1.i acquire, align 4
  store i32 %4, ptr %atomic-temp.i, align 4
  br label %_ZNKSt13__atomic_baseIiE4loadESt12memory_order.exit

seqcst.i:                                         ; preds = %invoke.cont.i
  %5 = load atomic i32, ptr %this1.i seq_cst, align 4
  store i32 %5, ptr %atomic-temp.i, align 4
  br label %_ZNKSt13__atomic_baseIiE4loadESt12memory_order.exit

terminate.lpad.i:                                 ; preds = %entry
  %6 = landingpad { ptr, i32 }
          catch ptr null
  %7 = extractvalue { ptr, i32 } %6, 0
  call void @__clang_call_terminate(ptr %7) #9
  unreachable

_ZNKSt13__atomic_baseIiE4loadESt12memory_order.exit: ; preds = %seqcst.i, %acquire.i, %monotonic.i
  %8 = load i32, ptr %atomic-temp.i, align 4
  ret i32 %8
}

; Function Attrs: mustprogress uwtable
define linkonce_odr void @_ZN6icu_7513umtx_initOnceERNS_9UInitOnceEPFvR10UErrorCodeES3_(ptr noundef nonnull align 4 dereferenceable(8) %uio, ptr noundef %fp, ptr noundef nonnull align 4 dereferenceable(4) %errCode) #3 comdat {
entry:
  %uio.addr = alloca ptr, align 8
  %fp.addr = alloca ptr, align 8
  %errCode.addr = alloca ptr, align 8
  store ptr %uio, ptr %uio.addr, align 8
  store ptr %fp, ptr %fp.addr, align 8
  store ptr %errCode, ptr %errCode.addr, align 8
  %0 = load ptr, ptr %errCode.addr, align 8
  %1 = load i32, ptr %0, align 4
  %call = call noundef signext i8 @_ZL9U_FAILURE10UErrorCode(i32 noundef %1)
  %tobool = icmp ne i8 %call, 0
  br i1 %tobool, label %if.then, label %if.end

if.then:                                          ; preds = %entry
  br label %if.end11

if.end:                                           ; preds = %entry
  %2 = load ptr, ptr %uio.addr, align 8
  %fState = getelementptr inbounds %"struct.icu_75::UInitOnce", ptr %2, i32 0, i32 0
  %call1 = call noundef i32 @_ZN6icu_7516umtx_loadAcquireERSt6atomicIiE(ptr noundef nonnull align 4 dereferenceable(4) %fState)
  %cmp = icmp ne i32 %call1, 2
  br i1 %cmp, label %land.lhs.true, label %if.else

land.lhs.true:                                    ; preds = %if.end
  %3 = load ptr, ptr %uio.addr, align 8
  %call2 = call noundef signext i8 @_ZN6icu_7520umtx_initImplPreInitERNS_9UInitOnceE(ptr noundef nonnull align 4 dereferenceable(8) %3)
  %tobool3 = icmp ne i8 %call2, 0
  br i1 %tobool3, label %if.then4, label %if.else

if.then4:                                         ; preds = %land.lhs.true
  %4 = load ptr, ptr %fp.addr, align 8
  %5 = load ptr, ptr %errCode.addr, align 8
  call void %4(ptr noundef nonnull align 4 dereferenceable(4) %5)
  %6 = load ptr, ptr %errCode.addr, align 8
  %7 = load i32, ptr %6, align 4
  %8 = load ptr, ptr %uio.addr, align 8
  %fErrCode = getelementptr inbounds %"struct.icu_75::UInitOnce", ptr %8, i32 0, i32 1
  store i32 %7, ptr %fErrCode, align 4
  %9 = load ptr, ptr %uio.addr, align 8
  call void @_ZN6icu_7521umtx_initImplPostInitERNS_9UInitOnceE(ptr noundef nonnull align 4 dereferenceable(8) %9)
  br label %if.end11

if.else:                                          ; preds = %land.lhs.true, %if.end
  %10 = load ptr, ptr %uio.addr, align 8
  %fErrCode5 = getelementptr inbounds %"struct.icu_75::UInitOnce", ptr %10, i32 0, i32 1
  %11 = load i32, ptr %fErrCode5, align 4
  %call6 = call noundef signext i8 @_ZL9U_FAILURE10UErrorCode(i32 noundef %11)
  %tobool7 = icmp ne i8 %call6, 0
  br i1 %tobool7, label %if.then8, label %if.end10

if.then8:                                         ; preds = %if.else
  %12 = load ptr, ptr %uio.addr, align 8
  %fErrCode9 = getelementptr inbounds %"struct.icu_75::UInitOnce", ptr %12, i32 0, i32 1
  %13 = load i32, ptr %fErrCode9, align 4
  %14 = load ptr, ptr %errCode.addr, align 8
  store i32 %13, ptr %14, align 4
  br label %if.end10

if.end10:                                         ; preds = %if.then8, %if.else
  br label %if.end11

if.end11:                                         ; preds = %if.end10, %if.then4, %if.then
  ret void
}

; Function Attrs: mustprogress nounwind uwtable
define internal noundef signext i8 @_ZL9U_FAILURE10UErrorCode(i32 noundef %code) #0 {
entry:
  %code.addr = alloca i32, align 4
  store i32 %code, ptr %code.addr, align 4
  %0 = load i32, ptr %code.addr, align 4
  %cmp = icmp sgt i32 %0, 0
  %conv = zext i1 %cmp to i8
  ret i8 %conv
}

; Function Attrs: mustprogress uwtable
define noundef ptr @_ZN6icu_7513Norm2AllModes14getNFCInstanceER10UErrorCode(ptr noundef nonnull align 4 dereferenceable(4) %errorCode) #3 align 2 {
entry:
  %retval = alloca ptr, align 8
  %errorCode.addr = alloca ptr, align 8
  store ptr %errorCode, ptr %errorCode.addr, align 8
  %0 = load ptr, ptr %errorCode.addr, align 8
  %1 = load i32, ptr %0, align 4
  %call = call noundef signext i8 @_ZL9U_FAILURE10UErrorCode(i32 noundef %1)
  %tobool = icmp ne i8 %call, 0
  br i1 %tobool, label %if.then, label %if.end

if.then:                                          ; preds = %entry
  store ptr null, ptr %retval, align 8
  br label %return

if.end:                                           ; preds = %entry
  %2 = load ptr, ptr %errorCode.addr, align 8
  call void @_ZN6icu_7513umtx_initOnceERNS_9UInitOnceEPFvR10UErrorCodeES3_(ptr noundef nonnull align 4 dereferenceable(8) @_ZN6icu_75L11nfcInitOnceE, ptr noundef @_ZN6icu_75L16initNFCSingletonER10UErrorCode, ptr noundef nonnull align 4 dereferenceable(4) %2)
  %3 = load ptr, ptr @_ZN6icu_75L12nfcSingletonE, align 8
  store ptr %3, ptr %retval, align 8
  br label %return

return:                                           ; preds = %if.end, %if.then
  %4 = load ptr, ptr %retval, align 8
  ret ptr %4
}

; Function Attrs: mustprogress uwtable
define noundef ptr @_ZN6icu_7518Normalizer2Factory14getFCCInstanceER10UErrorCode(ptr noundef nonnull align 4 dereferenceable(4) %errorCode) #3 align 2 {
entry:
  %errorCode.addr = alloca ptr, align 8
  %allModes = alloca ptr, align 8
  store ptr %errorCode, ptr %errorCode.addr, align 8
  %0 = load ptr, ptr %errorCode.addr, align 8
  %call = call noundef ptr @_ZN6icu_7513Norm2AllModes14getNFCInstanceER10UErrorCode(ptr noundef nonnull align 4 dereferenceable(4) %0)
  store ptr %call, ptr %allModes, align 8
  %1 = load ptr, ptr %allModes, align 8
  %cmp = icmp ne ptr %1, null
  br i1 %cmp, label %cond.true, label %cond.false

cond.true:                                        ; preds = %entry
  %2 = load ptr, ptr %allModes, align 8
  %fcc = getelementptr inbounds %"struct.icu_75::Norm2AllModes", ptr %2, i32 0, i32 4
  br label %cond.end

cond.false:                                       ; preds = %entry
  br label %cond.end

cond.end:                                         ; preds = %cond.false, %cond.true
  %cond = phi ptr [ %fcc, %cond.true ], [ null, %cond.false ]
  ret ptr %cond
}